; Function Attrs: mustprogress nounwind uwtable
define hidden noundef ptr @_ZN11ClassLoader17get_package_entryEP6SymbolP15ClassLoaderData(ptr noundef %0, ptr noundef %1) local_unnamed_addr #0 align 2 {
  %3 = icmp eq ptr %0, null
  br i1 %3, label %8, label %4

4:                                                ; preds = %2
  %5 = getelementptr inbounds i8, ptr %1, i64 64
  %6 = load volatile ptr, ptr %5, align 8
  %7 = tail call noundef ptr @_ZN17PackageEntryTable11lookup_onlyEP6Symbol(ptr noundef nonnull align 8 dereferenceable(880) %6, ptr noundef nonnull %0) #20
  br label %8

8:                                                ; preds = %2, %4
  %.0 = phi ptr [ %7, %4 ], [ null, %2 ]
  ret ptr %.0
}